target datalayout = "e-m:e-p270:32:32-p271:32:32-p272:64:64-i64:64-i128:128-f80:128-n8:16:32:64-S128"
target triple = "x86_64-pc-linux-gnu"

%struct._snmp_usm_params_t = type { i32, i32, i32, i32, i32, i32, ptr, ptr, ptr, ptr, ptr, ptr, ptr, i32 }
%struct.nstime_t = type { i64, i32 }
%struct._packet_info = type { ptr, ptr, i32, i32, %struct.nstime_t, %struct.nstime_t, %struct.nstime_t, i32, ptr, ptr, ptr, ptr, %struct._address, %struct._address, %struct._address, %struct._address, %struct._address, %struct._address, i32, ptr, i32, %struct.anon, i32, i32, i32, i32, ptr, i32, ptr, ptr, i16, i16, i32, i32, i16, i32, i32, ptr, ptr, ptr, i8, i8, i16, i16, i16, i32, i16, i16, ptr, ptr, ptr, ptr, ptr, i32 }
%struct._address = type { i32, i32, ptr, ptr }
%struct.anon = type { i8, [3 x i8] }
%struct._snmp_ue_assoc_t = type { %struct._snmp_user_t, %struct.snmp_engine_id_t, i32, i32, ptr }
%struct._snmp_user_t = type { %struct._snmp_usm_key, i32, %struct._snmp_usm_key, %struct._snmp_usm_key, ptr, %struct._snmp_usm_key, %struct._snmp_usm_key }
%struct._snmp_usm_key = type { ptr, i32 }
%struct.snmp_engine_id_t = type { ptr, i32 }

@.str.483 = private unnamed_addr constant [50 x i8] c"decryptionError: msgPrivacyParameters length != 8\00", align 1
@.str.484 = private unnamed_addr constant [80 x i8] c"decryptionError: the length of the encrypted data is not a multiple of 8 octets\00", align 1

; Function Attrs: nounwind uwtable
define internal ptr @snmp_usm_priv_des(ptr noundef %0, ptr noundef %1, ptr noundef %2, ptr noundef %3) #0 {
  %5 = alloca ptr, align 8
  %6 = alloca ptr, align 8
  %7 = alloca ptr, align 8
  %8 = alloca ptr, align 8
  %9 = alloca ptr, align 8
  %10 = alloca i32, align 4
  %11 = alloca ptr, align 8
  %12 = alloca ptr, align 8
  %13 = alloca ptr, align 8
  %14 = alloca ptr, align 8
  %15 = alloca ptr, align 8
  %16 = alloca i32, align 4
  %17 = alloca i32, align 4
  %18 = alloca ptr, align 8
  %19 = alloca ptr, align 8
  %20 = alloca [8 x i8], align 1
  %21 = alloca i32, align 4
  store ptr %0, ptr %6, align 8
  store ptr %1, ptr %7, align 8
  store ptr %2, ptr %8, align 8
  store ptr %3, ptr %9, align 8
  store ptr null, ptr %11, align 8
  %22 = load ptr, ptr %6, align 8
  %23 = getelementptr inbounds %struct._snmp_usm_params_t, ptr %22, i32 0, i32 12
  %24 = load ptr, ptr %23, align 8
  %25 = getelementptr inbounds %struct._snmp_ue_assoc_t, ptr %24, i32 0, i32 0
  %26 = getelementptr inbounds %struct._snmp_user_t, ptr %25, i32 0, i32 6
  %27 = getelementptr inbounds %struct._snmp_usm_key, ptr %26, i32 0, i32 0
  %28 = load ptr, ptr %27, align 8
  store ptr %28, ptr %13, align 8
  %29 = load ptr, ptr %6, align 8
  %30 = getelementptr inbounds %struct._snmp_usm_params_t, ptr %29, i32 0, i32 12
  %31 = load ptr, ptr %30, align 8
  %32 = getelementptr inbounds %struct._snmp_ue_assoc_t, ptr %31, i32 0, i32 0
  %33 = getelementptr inbounds %struct._snmp_user_t, ptr %32, i32 0, i32 6
  %34 = getelementptr inbounds %struct._snmp_usm_key, ptr %33, i32 0, i32 0
  %35 = load ptr, ptr %34, align 8
  %36 = getelementptr i8, ptr %35, i64 8
  store ptr %36, ptr %14, align 8
  %37 = load ptr, ptr %6, align 8
  %38 = getelementptr inbounds %struct._snmp_usm_params_t, ptr %37, i32 0, i32 10
  %39 = load ptr, ptr %38, align 8
  %40 = call i32 @tvb_captured_length(ptr noundef %39)
  store i32 %40, ptr %16, align 4
  %41 = load i32, ptr %16, align 4
  %42 = icmp ne i32 %41, 8
  br i1 %42, label %43, label %45

43:                                               ; preds = %4
  %44 = load ptr, ptr %9, align 8
  store ptr @.str.483, ptr %44, align 8
  store ptr null, ptr %5, align 8
  br label %149

45:                                               ; preds = %4
  %46 = load ptr, ptr %8, align 8
  %47 = getelementptr inbounds %struct._packet_info, ptr %46, i32 0, i32 50
  %48 = load ptr, ptr %47, align 8
  %49 = load ptr, ptr %6, align 8
  %50 = getelementptr inbounds %struct._snmp_usm_params_t, ptr %49, i32 0, i32 10
  %51 = load ptr, ptr %50, align 8
  %52 = load i32, ptr %16, align 4
  %53 = sext i32 %52 to i64
  %54 = call ptr @tvb_memdup(ptr noundef %48, ptr noundef %51, i32 noundef 0, i64 noundef %53)
  store ptr %54, ptr %15, align 8
  store i32 0, ptr %21, align 4
  br label %55

55:                                               ; preds = %76, %45
  %56 = load i32, ptr %21, align 4
  %57 = icmp ult i32 %56, 8
  br i1 %57, label %58, label %79

58:                                               ; preds = %55
  %59 = load ptr, ptr %14, align 8
  %60 = load i32, ptr %21, align 4
  %61 = zext i32 %60 to i64
  %62 = getelementptr i8, ptr %59, i64 %61
  %63 = load i8, ptr %62, align 1
  %64 = zext i8 %63 to i32
  %65 = load ptr, ptr %15, align 8
  %66 = load i32, ptr %21, align 4
  %67 = zext i32 %66 to i64
  %68 = getelementptr i8, ptr %65, i64 %67
  %69 = load i8, ptr %68, align 1
  %70 = zext i8 %69 to i32
  %71 = xor i32 %64, %70
  %72 = trunc i32 %71 to i8
  %73 = load i32, ptr %21, align 4
  %74 = zext i32 %73 to i64
  %75 = getelementptr [8 x i8], ptr %20, i64 0, i64 %74
  store i8 %72, ptr %75, align 1
  br label %76

76:                                               ; preds = %58
  %77 = load i32, ptr %21, align 4
  %78 = add i32 %77, 1
  store i32 %78, ptr %21, align 4
  br label %55, !llvm.loop !24

79:                                               ; preds = %55
  %80 = load ptr, ptr %7, align 8
  %81 = call i32 @tvb_captured_length(ptr noundef %80)
  store i32 %81, ptr %17, align 4
  %82 = load i32, ptr %17, align 4
  %83 = icmp sle i32 %82, 0
  br i1 %83, label %88, label %84

84:                                               ; preds = %79
  %85 = load i32, ptr %17, align 4
  %86 = srem i32 %85, 8
  %87 = icmp ne i32 %86, 0
  br i1 %87, label %88, label %90

88:                                               ; preds = %84, %79
  %89 = load ptr, ptr %9, align 8
  store ptr @.str.484, ptr %89, align 8
  store ptr null, ptr %5, align 8
  br label %149

90:                                               ; preds = %84
  %91 = load ptr, ptr %8, align 8
  %92 = getelementptr inbounds %struct._packet_info, ptr %91, i32 0, i32 50
  %93 = load ptr, ptr %92, align 8
  %94 = load ptr, ptr %7, align 8
  %95 = call ptr @tvb_memdup(ptr noundef %93, ptr noundef %94, i32 noundef 0, i64 noundef -1)
  store ptr %95, ptr %18, align 8
  %96 = load ptr, ptr %8, align 8
  %97 = getelementptr inbounds %struct._packet_info, ptr %96, i32 0, i32 50
  %98 = load ptr, ptr %97, align 8
  %99 = load i32, ptr %17, align 4
  %100 = sext i32 %99 to i64
  %101 = call noalias ptr @wmem_alloc(ptr noundef %98, i64 noundef %100)
  store ptr %101, ptr %12, align 8
  %102 = call i32 @gcry_cipher_open(ptr noundef %11, i32 noundef 302, i32 noundef 3, i32 noundef 0)
  store i32 %102, ptr %10, align 4
  %103 = load i32, ptr %10, align 4
  %104 = icmp ne i32 %103, 0
  br i1 %104, label %105, label %106

105:                                              ; preds = %90
  br label %140

106:                                              ; preds = %90
  %107 = load ptr, ptr %11, align 8
  %108 = getelementptr inbounds [8 x i8], ptr %20, i64 0, i64 0
  %109 = call i32 @gcry_cipher_setiv(ptr noundef %107, ptr noundef %108, i64 noundef 8)
  store i32 %109, ptr %10, align 4
  %110 = load i32, ptr %10, align 4
  %111 = icmp ne i32 %110, 0
  br i1 %111, label %112, label %113

112:                                              ; preds = %106
  br label %140

113:                                              ; preds = %106
  %114 = load ptr, ptr %11, align 8
  %115 = load ptr, ptr %13, align 8
  %116 = call i32 @gcry_cipher_setkey(ptr noundef %114, ptr noundef %115, i64 noundef 8)
  store i32 %116, ptr %10, align 4
  %117 = load i32, ptr %10, align 4
  %118 = icmp ne i32 %117, 0
  br i1 %118, label %119, label %120

119:                                              ; preds = %113
  br label %140

120:                                              ; preds = %113
  %121 = load ptr, ptr %11, align 8
  %122 = load ptr, ptr %12, align 8
  %123 = load i32, ptr %17, align 4
  %124 = sext i32 %123 to i64
  %125 = load ptr, ptr %18, align 8
  %126 = load i32, ptr %17, align 4
  %127 = sext i32 %126 to i64
  %128 = call i32 @gcry_cipher_decrypt(ptr noundef %121, ptr noundef %122, i64 noundef %124, ptr noundef %125, i64 noundef %127)
  store i32 %128, ptr %10, align 4
  %129 = load i32, ptr %10, align 4
  %130 = icmp ne i32 %129, 0
  br i1 %130, label %131, label %132

131:                                              ; preds = %120
  br label %140

132:                                              ; preds = %120
  %133 = load ptr, ptr %11, align 8
  call void @gcry_cipher_close(ptr noundef %133)
  %134 = load ptr, ptr %7, align 8
  %135 = load ptr, ptr %12, align 8
  %136 = load i32, ptr %17, align 4
  %137 = load i32, ptr %17, align 4
  %138 = call ptr @tvb_new_child_real_data(ptr noundef %134, ptr noundef %135, i32 noundef %136, i32 noundef %137)
  store ptr %138, ptr %19, align 8
  %139 = load ptr, ptr %19, align 8
  store ptr %139, ptr %5, align 8
  br label %149

140:                                              ; preds = %131, %119, %112, %105
  %141 = load i32, ptr %10, align 4
  %142 = call ptr @gcry_strerror(i32 noundef %141)
  %143 = load ptr, ptr %9, align 8
  store ptr %142, ptr %143, align 8
  %144 = load ptr, ptr %11, align 8
  %145 = icmp ne ptr %144, null
  br i1 %145, label %146, label %148

146:                                              ; preds = %140
  %147 = load ptr, ptr %11, align 8
  call void @gcry_cipher_close(ptr noundef %147)
  br label %148

148:                                              ; preds = %146, %140
  store ptr null, ptr %5, align 8
  br label %149

149:                                              ; preds = %148, %132, %88, %43
  %150 = load ptr, ptr %5, align 8
  ret ptr %150
}