; Function Attrs: nounwind uwtable
define internal ptr @snmp_usm_priv_des(ptr noundef readonly captures(none) %0, ptr noundef %1, ptr noundef readonly captures(none) %2, ptr noundef writeonly captures(none) %3) #0 {
  %5 = alloca ptr, align 8
  %6 = alloca [8 x i8], align 1
  store ptr null, ptr %5, align 8
  %7 = getelementptr inbounds nuw i8, ptr %0, i64 72
  %8 = load ptr, ptr %7, align 8
  %9 = getelementptr inbounds nuw i8, ptr %8, i64 80
  %10 = load ptr, ptr %9, align 8
  %11 = getelementptr i8, ptr %10, i64 8
  %12 = getelementptr inbounds nuw i8, ptr %0, i64 56
  %13 = load ptr, ptr %12, align 8
  %14 = tail call i32 @tvb_captured_length(ptr noundef %13) #11
  %.not = icmp eq i32 %14, 8
  br i1 %.not, label %16, label %15

15:                                               ; preds = %4
  store ptr @.str.483, ptr %3, align 8
  br label %56

16:                                               ; preds = %4
  %17 = getelementptr inbounds nuw i8, ptr %2, i64 408
  %18 = load ptr, ptr %17, align 8
  %19 = load ptr, ptr %12, align 8
  %20 = tail call ptr @tvb_memdup(ptr noundef %18, ptr noundef %19, i32 noundef 0, i64 noundef 8) #11
  br label %21

21:                                               ; preds = %16, %21
  %indvars.iv = phi i64 [ 0, %16 ], [ %indvars.iv.next, %21 ]
  %22 = getelementptr i8, ptr %11, i64 %indvars.iv
  %23 = load i8, ptr %22, align 1
  %24 = getelementptr i8, ptr %20, i64 %indvars.iv
  %25 = load i8, ptr %24, align 1
  %26 = xor i8 %25, %23
  %27 = getelementptr [8 x i8], ptr %6, i64 0, i64 %indvars.iv
  store i8 %26, ptr %27, align 1
  %indvars.iv.next = add nuw nsw i64 %indvars.iv, 1
  %exitcond.not = icmp eq i64 %indvars.iv.next, 8
  br i1 %exitcond.not, label %28, label %21, !llvm.loop !23

28:                                               ; preds = %21
  %29 = tail call i32 @tvb_captured_length(ptr noundef %1) #11
  %30 = icmp sgt i32 %29, 0
  %31 = and i32 %29, 7
  %.not48 = icmp eq i32 %31, 0
  %or.cond = and i1 %30, %.not48
  br i1 %or.cond, label %33, label %32

32:                                               ; preds = %28
  store ptr @.str.484, ptr %3, align 8
  br label %56

33:                                               ; preds = %28
  %34 = load ptr, ptr %17, align 8
  %35 = tail call ptr @tvb_memdup(ptr noundef %34, ptr noundef %1, i32 noundef 0, i64 noundef -1) #11
  %36 = load ptr, ptr %17, align 8
  %37 = zext nneg i32 %29 to i64
  %38 = tail call noalias ptr @wmem_alloc(ptr noundef %36, i64 noundef %37) #11
  %39 = call i32 @gcry_cipher_open(ptr noundef nonnull %5, i32 noundef 302, i32 noundef 3, i32 noundef 0) #11
  %.not49 = icmp eq i32 %39, 0
  br i1 %.not49, label %40, label %52

40:                                               ; preds = %33
  %41 = load ptr, ptr %5, align 8
  %42 = call i32 @gcry_cipher_setiv(ptr noundef %41, ptr noundef nonnull %6, i64 noundef 8) #11
  %.not50 = icmp eq i32 %42, 0
  br i1 %.not50, label %43, label %52

43:                                               ; preds = %40
  %44 = load ptr, ptr %5, align 8
  %45 = call i32 @gcry_cipher_setkey(ptr noundef %44, ptr noundef nonnull %10, i64 noundef 8) #11
  %.not51 = icmp eq i32 %45, 0
  br i1 %.not51, label %46, label %52

46:                                               ; preds = %43
  %47 = load ptr, ptr %5, align 8
  %48 = call i32 @gcry_cipher_decrypt(ptr noundef %47, ptr noundef %38, i64 noundef %37, ptr noundef %35, i64 noundef %37) #11
  %.not52 = icmp eq i32 %48, 0
  br i1 %.not52, label %49, label %52

49:                                               ; preds = %46
  %50 = load ptr, ptr %5, align 8
  call void @gcry_cipher_close(ptr noundef %50) #11
  %51 = call ptr @tvb_new_child_real_data(ptr noundef %1, ptr noundef %38, i32 noundef %29, i32 noundef %29) #11
  br label %56

52:                                               ; preds = %46, %43, %40, %33
  %.040 = phi i32 [ %39, %33 ], [ %42, %40 ], [ %45, %43 ], [ %48, %46 ]
  %53 = call ptr @gcry_strerror(i32 noundef %.040) #11
  store ptr %53, ptr %3, align 8
  %54 = load ptr, ptr %5, align 8
  %.not53 = icmp eq ptr %54, null
  br i1 %.not53, label %56, label %55

55:                                               ; preds = %52
  call void @gcry_cipher_close(ptr noundef nonnull %54) #11
  br label %56

56:                                               ; preds = %52, %55, %49, %32, %15
  %.039 = phi ptr [ null, %15 ], [ null, %32 ], [ %51, %49 ], [ null, %55 ], [ null, %52 ]
  ret ptr %.039
}